; Function Attrs: mustprogress nofree norecurse nosync nounwind willreturn memory(read, inaccessiblemem: none) uwtable
define dso_local noundef i32 @_Z10calc_totalRKSt6vectorIiSaIiEE(ptr noundef nonnull readonly align 8 captures(none) dereferenceable(24) %0) local_unnamed_addr #8 {
  %2 = getelementptr inbounds nuw i8, ptr %0, i64 8
  %3 = load ptr, ptr %2, align 8, !tbaa !11
  %4 = load ptr, ptr %0, align 8, !tbaa !4
  %.not = icmp eq ptr %3, %4
  br i1 %.not, label %._crit_edge, label %.lr.ph.preheader

.lr.ph.preheader:                                 ; preds = %1
  %5 = ptrtoint ptr %3 to i64
  %6 = ptrtoint ptr %4 to i64
  %7 = sub i64 %5, %6
  %8 = ashr exact i64 %7, 2
  %umax = tail call i64 @llvm.umax.i64(i64 %8, i64 1)
  br label %.lr.ph

.lr.ph:                                           ; preds = %.lr.ph.preheader, %.lr.ph
  %.08 = phi i32 [ %11, %.lr.ph ], [ 0, %.lr.ph.preheader ]
  %.067 = phi i64 [ %12, %.lr.ph ], [ 0, %.lr.ph.preheader ]
  %9 = getelementptr inbounds nuw i32, ptr %4, i64 %.067
  %10 = load i32, ptr %9, align 4, !tbaa !12
  %11 = add nsw i32 %10, %.08
  %12 = add nuw i64 %.067, 1
  %exitcond.not = icmp eq i64 %12, %umax
  br i1 %exitcond.not, label %._crit_edge, label %.lr.ph, !llvm.loop !137

._crit_edge:                                      ; preds = %.lr.ph, %1
  %.0.lcssa = phi i32 [ 0, %1 ], [ %11, %.lr.ph ]
  ret i32 %.0.lcssa
}